; Function Attrs: mustprogress nofree norecurse nosync nounwind willreturn memory(read, inaccessiblemem: none) uwtable
define range(i32 -2147483647, -2147483648) i32 @Java_sun_font_NativeStrike_getMaxGlyph(ptr nocapture noundef readnone %0, ptr nocapture noundef readnone %1, i64 noundef %2) local_unnamed_addr #5 {
  %4 = icmp eq i64 %2, 0
  br i1 %4, label %10, label %5

5:                                                ; preds = %3
  %6 = inttoptr i64 %2 to ptr
  %7 = getelementptr inbounds i8, ptr %6, i64 12
  %8 = load i32, ptr %7, align 4
  %9 = add nsw i32 %8, 1
  br label %10

10:                                               ; preds = %3, %5
  %.0 = phi i32 [ %9, %5 ], [ 0, %3 ]
  ret i32 %.0
}